target datalayout = "e-m:e-p270:32:32-p271:32:32-p272:64:64-i64:64-i128:128-f80:128-n8:16:32:64-S128"
target triple = "x86_64-pc-linux-gnu"

%struct._e_guid_t = type { i32, i16, i16, [8 x i8] }
%struct._address = type { i32, i32, ptr, ptr }
%struct._dcerpc_info = type { ptr, i32, i64, i8, i8, i8, i32, i32, i32, i32, i32, i32, i32, i32, ptr, ptr, ptr, ptr, %struct.anon }
%struct.anon = type { i8, ptr, ptr, ptr, i8 }
%struct._dcerpc_call_value = type { %struct._e_guid_t, i16, %struct._e_guid_t, i16, i32, %struct.nstime_t, i32, i32, ptr, ptr, ptr, i32 }
%struct.nstime_t = type { i64, i32 }
%struct._packet_info = type { ptr, ptr, i32, i32, %struct.nstime_t, %struct.nstime_t, %struct.nstime_t, i8, ptr, ptr, ptr, ptr, %struct._address, %struct._address, %struct._address, %struct._address, %struct._address, %struct._address, i32, ptr, i8, [3 x i8], %struct.anon.0, i32, i32, i32, i32, ptr, i8, ptr, ptr, i16, i16, i32, i32, i16, i32, i32, ptr, ptr, ptr, i8, i8, i16, i16, i16, i32, i16, i16, ptr, ptr, ptr, ptr, ptr, i32, i32 }
%struct.anon.0 = type { i8, [3 x i8] }
%struct._frame_data = type <{ i32, i32, i32, i32, i32, [4 x i8], i64, ptr, ptr, ptr, i8, i16, [5 x i8], %struct.nstime_t, %struct.nstime_t, i32, i32 }>
%struct.ndr_pointer_data = type { i32, ptr, ptr, ptr, i32, ptr, ptr }

; Function Attrs: null_pointer_is_valid sspstrong uwtable
define internal void @add_pointer_to_list(ptr noundef %0, ptr noundef %1, ptr noundef %2, ptr noundef %3, ptr noundef %4, i32 noundef %5, i32 noundef %6, ptr noundef %7, ptr noundef %8) #0 {
  %10 = alloca ptr, align 8
  %11 = alloca ptr, align 8
  %12 = alloca ptr, align 8
  %13 = alloca ptr, align 8
  %14 = alloca ptr, align 8
  %15 = alloca i32, align 4
  %16 = alloca i32, align 4
  %17 = alloca ptr, align 8
  %18 = alloca ptr, align 8
  %19 = alloca ptr, align 8
  %20 = alloca ptr, align 8
  %21 = alloca ptr, align 8
  %22 = alloca i32, align 4
  %23 = alloca i64, align 8
  %24 = alloca i64, align 8
  %25 = alloca ptr, align 8
  %26 = alloca ptr, align 8
  store ptr %0, ptr %10, align 8
  store ptr %1, ptr %11, align 8
  store ptr %2, ptr %12, align 8
  store ptr %3, ptr %13, align 8
  store ptr %4, ptr %14, align 8
  store i32 %5, ptr %15, align 4
  store i32 %6, ptr %16, align 4
  store ptr %7, ptr %17, align 8
  store ptr %8, ptr %18, align 8
  call void @llvm.lifetime.start.p0(i64 8, ptr %19) #19
  call void @llvm.lifetime.start.p0(i64 8, ptr %20) #19
  %27 = load i32, ptr %15, align 4
  %28 = icmp ne i32 %27, -1
  br i1 %28, label %29, label %78

29:                                               ; preds = %9
  call void @llvm.lifetime.start.p0(i64 8, ptr %21) #19
  %30 = load ptr, ptr %13, align 8
  %31 = getelementptr inbounds nuw %struct._dcerpc_info, ptr %30, i32 0, i32 14
  %32 = load ptr, ptr %31, align 8
  store ptr %32, ptr %21, align 8
  %33 = load ptr, ptr %13, align 8
  %34 = getelementptr inbounds nuw %struct._dcerpc_info, ptr %33, i32 0, i32 3
  %35 = load i8, ptr %34, align 8
  %36 = zext i8 %35 to i32
  %37 = icmp eq i32 %36, 0
  br i1 %37, label %38, label %60

38:                                               ; preds = %29
  %39 = load ptr, ptr %10, align 8
  %40 = getelementptr inbounds nuw %struct._packet_info, ptr %39, i32 0, i32 8
  %41 = load ptr, ptr %40, align 8
  %42 = getelementptr inbounds nuw %struct._frame_data, ptr %41, i32 0, i32 11
  %43 = load i16, ptr %42, align 1
  %44 = lshr i16 %43, 3
  %45 = and i16 %44, 1
  %46 = zext i16 %45 to i32
  %47 = icmp ne i32 %46, 0
  br i1 %47, label %59, label %48

48:                                               ; preds = %38
  %49 = load i32, ptr %15, align 4
  %50 = load ptr, ptr %21, align 8
  %51 = getelementptr inbounds nuw %struct._dcerpc_call_value, ptr %50, i32 0, i32 7
  %52 = load i32, ptr %51, align 4
  %53 = icmp ugt i32 %49, %52
  br i1 %53, label %54, label %58

54:                                               ; preds = %48
  %55 = load i32, ptr %15, align 4
  %56 = load ptr, ptr %21, align 8
  %57 = getelementptr inbounds nuw %struct._dcerpc_call_value, ptr %56, i32 0, i32 7
  store i32 %55, ptr %57, align 4
  br label %58

58:                                               ; preds = %54, %48
  br label %59

59:                                               ; preds = %58, %38
  br label %74

60:                                               ; preds = %29
  %61 = load ptr, ptr %21, align 8
  %62 = getelementptr inbounds nuw %struct._dcerpc_call_value, ptr %61, i32 0, i32 4
  %63 = load i32, ptr %62, align 8
  %64 = icmp eq i32 %63, 0
  br i1 %64, label %65, label %66

65:                                               ; preds = %60
  br label %66

66:                                               ; preds = %65, %60
  %67 = load i32, ptr %15, align 4
  %68 = load ptr, ptr %21, align 8
  %69 = getelementptr inbounds nuw %struct._dcerpc_call_value, ptr %68, i32 0, i32 7
  %70 = load i32, ptr %69, align 4
  %71 = icmp ule i32 %67, %70
  br i1 %71, label %72, label %73

72:                                               ; preds = %66
  store i32 1, ptr %22, align 4
  br label %75

73:                                               ; preds = %66
  br label %74

74:                                               ; preds = %73, %59
  store i32 0, ptr %22, align 4
  br label %75

75:                                               ; preds = %74, %72
  call void @llvm.lifetime.end.p0(i64 8, ptr %21) #19
  %76 = load i32, ptr %22, align 4
  switch i32 %76, label %177 [
    i32 0, label %77
  ]

77:                                               ; preds = %75
  br label %78

78:                                               ; preds = %77, %9
  call void @llvm.lifetime.start.p0(i64 8, ptr %23) #19
  store i64 1, ptr %23, align 8
  call void @llvm.lifetime.start.p0(i64 8, ptr %24) #19
  store i64 56, ptr %24, align 8
  call void @llvm.lifetime.start.p0(i64 8, ptr %25) #19
  %79 = load i64, ptr %24, align 8
  %80 = icmp eq i64 %79, 1
  br i1 %80, label %81, label %84

81:                                               ; preds = %78
  %82 = load i64, ptr %23, align 8
  %83 = call noalias ptr @g_malloc(i64 noundef %82) #20
  store ptr %83, ptr %25, align 8
  br label %105

84:                                               ; preds = %78
  %85 = load i64, ptr %23, align 8
  %86 = call i1 @llvm.is.constant.i64(i64 %85)
  br i1 %86, label %87, label %100

87:                                               ; preds = %84
  %88 = load i64, ptr %24, align 8
  %89 = icmp eq i64 %88, 0
  br i1 %89, label %95, label %90

90:                                               ; preds = %87
  %91 = load i64, ptr %23, align 8
  %92 = load i64, ptr %24, align 8
  %93 = udiv i64 -1, %92
  %94 = icmp ule i64 %91, %93
  br i1 %94, label %95, label %100

95:                                               ; preds = %90, %87
  %96 = load i64, ptr %23, align 8
  %97 = load i64, ptr %24, align 8
  %98 = mul i64 %96, %97
  %99 = call noalias ptr @g_malloc(i64 noundef %98) #20
  store ptr %99, ptr %25, align 8
  br label %104

100:                                              ; preds = %90, %84
  %101 = load i64, ptr %23, align 8
  %102 = load i64, ptr %24, align 8
  %103 = call noalias ptr @g_malloc_n(i64 noundef %101, i64 noundef %102) #21
  store ptr %103, ptr %25, align 8
  br label %104

104:                                              ; preds = %100, %95
  br label %105

105:                                              ; preds = %104, %81
  %106 = load ptr, ptr %25, align 8
  store ptr %106, ptr %26, align 8
  call void @llvm.lifetime.end.p0(i64 8, ptr %25) #19
  call void @llvm.lifetime.end.p0(i64 8, ptr %24) #19
  call void @llvm.lifetime.end.p0(i64 8, ptr %23) #19
  %107 = load ptr, ptr %26, align 8
  store ptr %107, ptr %19, align 8
  %108 = load i32, ptr %15, align 4
  %109 = load ptr, ptr %19, align 8
  %110 = getelementptr inbounds nuw %struct.ndr_pointer_data, ptr %109, i32 0, i32 0
  store i32 %108, ptr %110, align 8
  %111 = load ptr, ptr %11, align 8
  %112 = load ptr, ptr %19, align 8
  %113 = getelementptr inbounds nuw %struct.ndr_pointer_data, ptr %112, i32 0, i32 2
  store ptr %111, ptr %113, align 8
  %114 = load ptr, ptr %12, align 8
  %115 = load ptr, ptr %19, align 8
  %116 = getelementptr inbounds nuw %struct.ndr_pointer_data, ptr %115, i32 0, i32 1
  store ptr %114, ptr %116, align 8
  %117 = load ptr, ptr %14, align 8
  %118 = load ptr, ptr %19, align 8
  %119 = getelementptr inbounds nuw %struct.ndr_pointer_data, ptr %118, i32 0, i32 3
  store ptr %117, ptr %119, align 8
  %120 = load i32, ptr %16, align 4
  %121 = load ptr, ptr %19, align 8
  %122 = getelementptr inbounds nuw %struct.ndr_pointer_data, ptr %121, i32 0, i32 4
  store i32 %120, ptr %122, align 8
  %123 = load ptr, ptr %17, align 8
  %124 = load ptr, ptr %19, align 8
  %125 = getelementptr inbounds nuw %struct.ndr_pointer_data, ptr %124, i32 0, i32 5
  store ptr %123, ptr %125, align 8
  %126 = load ptr, ptr %18, align 8
  %127 = load ptr, ptr %19, align 8
  %128 = getelementptr inbounds nuw %struct.ndr_pointer_data, ptr %127, i32 0, i32 6
  store ptr %126, ptr %128, align 8
  %129 = call ptr @wmem_file_scope()
  %130 = call noalias ptr @wmem_alloc(ptr noundef %129, i64 noundef 4) #22
  store ptr %130, ptr %20, align 8
  %131 = load i32, ptr %15, align 4
  %132 = load ptr, ptr %20, align 8
  store i32 %131, ptr %132, align 4
  %133 = load ptr, ptr %13, align 8
  %134 = getelementptr inbounds nuw %struct._dcerpc_info, ptr %133, i32 0, i32 18
  %135 = getelementptr inbounds nuw %struct.anon, ptr %134, i32 0, i32 1
  %136 = load ptr, ptr %135, align 8
  %137 = icmp ne ptr %136, null
  br i1 %137, label %156, label %138

138:                                              ; preds = %105
  %139 = load ptr, ptr %19, align 8
  %140 = call ptr @g_slist_append(ptr noundef null, ptr noundef %139)
  %141 = load ptr, ptr %13, align 8
  %142 = getelementptr inbounds nuw %struct._dcerpc_info, ptr %141, i32 0, i32 18
  %143 = getelementptr inbounds nuw %struct.anon, ptr %142, i32 0, i32 1
  store ptr %140, ptr %143, align 8
  %144 = load ptr, ptr %13, align 8
  %145 = getelementptr inbounds nuw %struct._dcerpc_info, ptr %144, i32 0, i32 18
  %146 = getelementptr inbounds nuw %struct.anon, ptr %145, i32 0, i32 3
  %147 = load ptr, ptr %146, align 8
  %148 = load ptr, ptr %13, align 8
  %149 = getelementptr inbounds nuw %struct._dcerpc_info, ptr %148, i32 0, i32 18
  %150 = getelementptr inbounds nuw %struct.anon, ptr %149, i32 0, i32 1
  %151 = load ptr, ptr %150, align 8
  %152 = call ptr @g_slist_append(ptr noundef %147, ptr noundef %151)
  %153 = load ptr, ptr %13, align 8
  %154 = getelementptr inbounds nuw %struct._dcerpc_info, ptr %153, i32 0, i32 18
  %155 = getelementptr inbounds nuw %struct.anon, ptr %154, i32 0, i32 3
  store ptr %152, ptr %155, align 8
  br label %166

156:                                              ; preds = %105
  %157 = load ptr, ptr %13, align 8
  %158 = getelementptr inbounds nuw %struct._dcerpc_info, ptr %157, i32 0, i32 18
  %159 = getelementptr inbounds nuw %struct.anon, ptr %158, i32 0, i32 1
  %160 = load ptr, ptr %159, align 8
  %161 = load ptr, ptr %19, align 8
  %162 = call ptr @g_slist_append(ptr noundef %160, ptr noundef %161)
  %163 = load ptr, ptr %13, align 8
  %164 = getelementptr inbounds nuw %struct._dcerpc_info, ptr %163, i32 0, i32 18
  %165 = getelementptr inbounds nuw %struct.anon, ptr %164, i32 0, i32 1
  store ptr %162, ptr %165, align 8
  br label %166

166:                                              ; preds = %156, %138
  %167 = load ptr, ptr %13, align 8
  %168 = getelementptr inbounds nuw %struct._dcerpc_info, ptr %167, i32 0, i32 18
  %169 = getelementptr inbounds nuw %struct.anon, ptr %168, i32 0, i32 2
  %170 = load ptr, ptr %169, align 8
  %171 = load ptr, ptr %20, align 8
  %172 = load ptr, ptr %20, align 8
  %173 = call i32 @g_hash_table_insert(ptr noundef %170, ptr noundef %171, ptr noundef %172)
  %174 = load ptr, ptr %13, align 8
  %175 = getelementptr inbounds nuw %struct._dcerpc_info, ptr %174, i32 0, i32 18
  %176 = getelementptr inbounds nuw %struct.anon, ptr %175, i32 0, i32 0
  store i8 1, ptr %176, align 8
  store i32 0, ptr %22, align 4
  br label %177

177:                                              ; preds = %166, %75
  call void @llvm.lifetime.end.p0(i64 8, ptr %20) #19
  call void @llvm.lifetime.end.p0(i64 8, ptr %19) #19
  %178 = load i32, ptr %22, align 4
  switch i32 %178, label %180 [
    i32 0, label %179
    i32 1, label %179
  ]

179:                                              ; preds = %177, %177
  ret void

180:                                              ; preds = %177
  unreachable
}