; Function Attrs: null_pointer_is_valid sspstrong uwtable
define internal fastcc void @add_pointer_to_list(ptr noundef readonly captures(none) %0, ptr noundef %1, ptr noundef %2, ptr noundef captures(none) %3, ptr noundef %4, i32 noundef %5, i32 noundef %6, ptr noundef %7, ptr noundef %8) unnamed_addr #0 {
  %.not = icmp eq i32 %5, -1
  br i1 %.not, label %.critedge, label %10

10:                                               ; preds = %9
  %11 = getelementptr inbounds nuw i8, ptr %3, i64 64
  %12 = load ptr, ptr %11, align 8
  %13 = getelementptr inbounds nuw i8, ptr %3, i64 24
  %14 = load i8, ptr %13, align 8
  %15 = icmp eq i8 %14, 0
  br i1 %15, label %16, label %27

16:                                               ; preds = %10
  %17 = getelementptr inbounds nuw i8, ptr %0, i64 80
  %18 = load ptr, ptr %17, align 8
  %19 = getelementptr inbounds nuw i8, ptr %18, i64 57
  %20 = load i16, ptr %19, align 1
  %21 = and i16 %20, 8
  %.not56 = icmp eq i16 %21, 0
  br i1 %.not56, label %22, label %.critedge

22:                                               ; preds = %16
  %23 = getelementptr inbounds nuw i8, ptr %12, i64 68
  %24 = load i32, ptr %23, align 4
  %25 = icmp ugt i32 %5, %24
  br i1 %25, label %26, label %.critedge

26:                                               ; preds = %22
  store i32 %5, ptr %23, align 4
  br label %.critedge

27:                                               ; preds = %10
  %28 = getelementptr inbounds nuw i8, ptr %12, i64 68
  %29 = load i32, ptr %28, align 4
  %.not55 = icmp ugt i32 %5, %29
  br i1 %.not55, label %.critedge, label %53

.critedge:                                        ; preds = %22, %26, %16, %27, %9
  %30 = tail call noalias dereferenceable_or_null(56) ptr @g_malloc(i64 noundef 56) #17
  store i32 %5, ptr %30, align 8
  %31 = getelementptr inbounds nuw i8, ptr %30, i64 16
  store ptr %1, ptr %31, align 8
  %32 = getelementptr inbounds nuw i8, ptr %30, i64 8
  store ptr %2, ptr %32, align 8
  %33 = getelementptr inbounds nuw i8, ptr %30, i64 24
  store ptr %4, ptr %33, align 8
  %34 = getelementptr inbounds nuw i8, ptr %30, i64 32
  store i32 %6, ptr %34, align 8
  %35 = getelementptr inbounds nuw i8, ptr %30, i64 40
  store ptr %7, ptr %35, align 8
  %36 = getelementptr inbounds nuw i8, ptr %30, i64 48
  store ptr %8, ptr %36, align 8
  %37 = tail call ptr @wmem_file_scope()
  %38 = tail call noalias dereferenceable_or_null(4) ptr @wmem_alloc(ptr noundef %37, i64 noundef 4) #18
  store i32 %5, ptr %38, align 4
  %39 = getelementptr inbounds nuw i8, ptr %3, i64 96
  %40 = getelementptr inbounds nuw i8, ptr %3, i64 104
  %41 = load ptr, ptr %40, align 8
  %.not57 = icmp eq ptr %41, null
  br i1 %.not57, label %42, label %47

42:                                               ; preds = %.critedge
  %43 = tail call ptr @g_slist_append(ptr noundef null, ptr noundef %30)
  store ptr %43, ptr %40, align 8
  %44 = getelementptr inbounds nuw i8, ptr %3, i64 120
  %45 = load ptr, ptr %44, align 8
  %46 = tail call ptr @g_slist_append(ptr noundef %45, ptr noundef %43)
  store ptr %46, ptr %44, align 8
  br label %49

47:                                               ; preds = %.critedge
  %48 = tail call ptr @g_slist_append(ptr noundef nonnull %41, ptr noundef %30)
  store ptr %48, ptr %40, align 8
  br label %49

49:                                               ; preds = %47, %42
  %50 = getelementptr inbounds nuw i8, ptr %3, i64 112
  %51 = load ptr, ptr %50, align 8
  %52 = tail call i32 @g_hash_table_insert(ptr noundef %51, ptr noundef %38, ptr noundef %38)
  store i8 1, ptr %39, align 8
  br label %53

53:                                               ; preds = %27, %49
  ret void
}